Certificate:
    Data:
        Version: 3 (0x2)
        Serial Number: 1 (0x1)
        Signature Algorithm: sha256WithRSAEncryption
        Issuer: C=CN, O=Carriage, CN=Aiden
        Validity
            Not Before: Nov  4 11:50:39 2020 GMT
            Not After : Nov  4 11:50:39 2021 GMT
        Subject: C=CN, O=Carriage, CN=steamcommunity.com
        Subject Public Key Info:
            Public Key Algorithm: rsaEncryption
                RSA Public-Key: (2048 bit)
                Modulus:
                    00:cc:c0:99:7b:1b:df:01:14:28:fc:96:42:f6:23:
                    46:52:05:38:a3:0f:35:7e:79:e5:a7:cd:28:b1:06:
                    f7:0b:8a:e7:f2:19:e0:52:48:46:77:b8:cd:bb:f1:
                    19:e5:14:63:a8:36:ee:ee:07:47:ec:14:fa:bd:cf:
                    20:da:0b:17:fb:2a:cf:c7:86:6b:18:22:1d:23:d7:
                    c8:43:cf:25:68:ab:42:96:58:21:dd:5d:5a:cf:57:
                    54:59:18:b0:a9:7c:5d:fd:b4:f4:19:50:d2:e2:19:
                    36:64:74:2e:3c:1d:46:aa:1a:da:3f:fb:74:2e:b6:
                    59:ce:a4:58:92:e1:77:cb:5f:f1:79:14:78:c6:e0:
                    cf:ba:c4:77:bb:b2:6f:9f:7c:04:74:8f:25:9c:3c:
                    b7:19:83:2f:ad:ad:8c:51:7f:aa:a5:d3:b6:03:fc:
                    de:4b:3a:14:2f:21:ed:93:b5:13:fa:d8:5b:47:07:
                    06:9e:9b:2a:a6:d0:cb:ec:f6:b1:62:b5:5d:73:a4:
                    ad:35:e6:d4:b9:4e:c7:63:4a:0b:8b:6d:91:bc:4a:
                    da:83:d7:05:61:08:07:c9:ae:7b:86:7b:7b:80:80:
                    84:65:4e:ee:36:de:31:68:5b:01:e5:7c:a5:c6:b4:
                    7d:c4:47:53:0b:d5:66:ab:7a:1a:10:88:24:8a:d8:
                    6a:69
                Exponent: 65537 (0x10001)
        X509v3 extensions:
            X509v3 Key Usage: 
                Digital Signature
            X509v3 Extended Key Usage: 
                TLS Web Server Authentication, TLS Web Client Authentication
            X509v3 Basic Constraints: 
                CA:FALSE
            X509v3 Subject Alternative Name: 
                DNS:steamcommunity.com, DNS:*.steamcommunity.com
            X509v3 Subject Key Identifier: 
                82:3D:25:16:58:E0:88:49:C0:1C:C5:40:F7:4A:26:48:CA:87:9D:8B
    Signature Algorithm: sha256WithRSAEncryption
         69:ef:c2:9a:07:a1:a3:04:d6:8e:45:a4:f6:df:31:68:16:c8:
         e0:88:dd:3c:32:46:e0:c5:03:42:96:29:4a:6e:24:67:43:64:
         8c:cc:c3:06:8a:3d:02:6a:73:f1:47:fe:62:dd:61:25:ae:13:
         ab:47:e1:fd:02:ec:89:39:e1:9b:22:d1:ed:04:c5:cd:57:e7:
         2c:6d:c8:ba:04:77:d4:68:d6:68:6a:2e:cb:a9:94:59:bc:ba:
         73:00:cb:a5:8d:dc:01:78:55:d1:00:36:7d:9d:cb:1d:7c:7e:
         74:de:2e:c0:51:c7:d7:b3:7d:4d:10:bd:c5:3c:21:e1:c3:e0:
         0b:60:b3:44:f6:6a:cb:2f:94:d5:7c:52:b0:9a:a0:ef:73:b7:
         79:8a:54:8f:1a:40:9c:48:ab:9f:59:ec:69:6a:f3:fc:d3:36:
         88:11:6e:b2:2e:1d:15:35:f3:29:01:aa:a5:19:b0:48:76:4f:
         3c:ef:7b:0d:22:4c:a9:06:eb:68:73:82:db:a3:da:e3:23:68:
         6b:75:9c:f8:3e:1f:d3:95:a5:73:36:68:87:47:2f:02:ad:03:
         c4:e8:23:19:13:29:ed:7c:d6:87:2c:98:d5:66:13:9d:96:50:
         9d:b2:34:a9:f9:13:0d:df:6f:30:90:e4:f6:63:a7:56:68:c0:
         89:92:05:64
-----BEGIN CERTIFICATE-----
MIIDdzCCAl+gAwIBAgIBATANBgkqhkiG9w0BAQsFADAwMQswCQYDVQQGEwJDTjER
MA8GA1UECgwIQ2FycmlhZ2UxDjAMBgNVBAMMBUFpZGVuMB4XDTIwMTEwNDExNTAz
OVoXDTIxMTEwNDExNTAzOVowPTELMAkGA1UEBhMCQ04xETAPBgNVBAoMCENhcnJp
YWdlMRswGQYDVQQDDBJzdGVhbWNvbW11bml0eS5jb20wggEiMA0GCSqGSIb3DQEB
AQUAA4IBDwAwggEKAoIBAQDMwJl7G98BFCj8lkL2I0ZSBTijDzV+eeWnzSixBvcL
iufyGeBSSEZ3uM278RnlFGOoNu7uB0fsFPq9zyDaCxf7Ks/HhmsYIh0j18hDzyVo
q0KWWCHdXVrPV1RZGLCpfF39tPQZUNLiGTZkdC48HUaqGto/+3QutlnOpFiS4XfL
X/F5FHjG4M+6xHe7sm+ffAR0jyWcPLcZgy+trYxRf6ql07YD/N5LOhQvIe2TtRP6
2FtHBwaemyqm0Mvs9rFitV1zpK015tS5TsdjSguLbZG8StqD1wVhCAfJrnuGe3uA
gIRlTu423jFoWwHlfKXGtH3ER1ML1WarehoQiCSK2GppAgMBAAGjgY4wgYswCwYD
VR0PBAQDAgeAMB0GA1UdJQQWMBQGCCsGAQUFBwMBBggrBgEFBQcDAjAJBgNVHRME
AjAAMDMGA1UdEQQsMCqCEnN0ZWFtY29tbXVuaXR5LmNvbYIUKi5zdGVhbWNvbW11
bml0eS5jb20wHQYDVR0OBBYEFII9JRZY4IhJwBzFQPdKJkjKh52LMA0GCSqGSIb3
DQEBCwUAA4IBAQBp78KaB6GjBNaORaT23zFoFsjgiN08MkbgxQNClilKbiRnQ2SM
zMMGij0CanPxR/5i3WElrhOrR+H9AuyJOeGbItHtBMXNV+csbci6BHfUaNZoai7L
qZRZvLpzAMuljdwBeFXRADZ9ncsdfH503i7AUcfXs31NEL3FPCHhw+ALYLNE9mrL
L5TVfFKwmqDvc7d5ilSPGkCcSKufWexpavP80zaIEW6yLh0VNfMpAaqlGbBIdk88
73sNIkypButoc4Lbo9rjI2hrdZz4Ph/TlaVzNmiHRy8CrQPE6CMZEyntfNaHLJjV
ZhOdllCdsjSp+RMN328wkOT2Y6dWaMCJkgVk
-----END CERTIFICATE-----
